target datalayout = "e-m:e-p270:32:32-p271:32:32-p272:64:64-i64:64-i128:128-f80:128-n8:16:32:64-S128"
target triple = "x86_64-pc-linux-gnu"

@.str.8 = private unnamed_addr constant [32 x i8] c"../openssl/crypto/ec/ecx_meth.c\00", align 1
@__func__.pkey_ecd_ctrl = private unnamed_addr constant [14 x i8] c"pkey_ecd_ctrl\00", align 1

; Function Attrs: nounwind uwtable
define internal i32 @pkey_ecd_ctrl(ptr noundef %0, i32 noundef %1, i32 noundef %2, ptr noundef %3) #0 {
  %5 = alloca i32, align 4
  %6 = alloca ptr, align 8
  %7 = alloca i32, align 4
  %8 = alloca i32, align 4
  %9 = alloca ptr, align 8
  store ptr %0, ptr %6, align 8, !tbaa !70
  store i32 %1, ptr %7, align 4, !tbaa !10
  store i32 %2, ptr %8, align 4, !tbaa !10
  store ptr %3, ptr %9, align 8, !tbaa !47
  %10 = load i32, ptr %7, align 4, !tbaa !10
  switch i32 %10, label %21 [
    i32 1, label %11
    i32 7, label %20
  ]

11:                                               ; preds = %4
  %12 = load ptr, ptr %9, align 8, !tbaa !47
  %13 = icmp eq ptr %12, null
  br i1 %13, label %18, label %14

14:                                               ; preds = %11
  %15 = load ptr, ptr %9, align 8, !tbaa !47
  %16 = call ptr @EVP_md_null()
  %17 = icmp eq ptr %15, %16
  br i1 %17, label %18, label %19

18:                                               ; preds = %14, %11
  store i32 1, ptr %5, align 4
  br label %22

19:                                               ; preds = %14
  call void @ERR_new()
  call void @ERR_set_debug(ptr noundef @.str.8, i32 noundef 905, ptr noundef @__func__.pkey_ecd_ctrl)
  call void (i32, i32, ptr, ...) @ERR_set_error(i32 noundef 16, i32 noundef 138, ptr noundef null)
  store i32 0, ptr %5, align 4
  br label %22

20:                                               ; preds = %4
  store i32 1, ptr %5, align 4
  br label %22

21:                                               ; preds = %4
  store i32 -2, ptr %5, align 4
  br label %22

22:                                               ; preds = %21, %20, %19, %18
  %23 = load i32, ptr %5, align 4
  ret i32 %23
}