; Function Attrs: nounwind uwtable
define internal range(i32 -2, 2) i32 @pkey_ecd_ctrl(ptr readnone captures(none) %0, i32 noundef %1, i32 %2, ptr noundef readnone captures(address) %3) #0 {
  switch i32 %1, label %11 [
    i32 1, label %5
    i32 7, label %12
  ]

5:                                                ; preds = %4
  %6 = icmp eq ptr %3, null
  br i1 %6, label %12, label %7

7:                                                ; preds = %5
  %8 = tail call ptr @EVP_md_null() #8
  %9 = icmp eq ptr %3, %8
  br i1 %9, label %12, label %10

10:                                               ; preds = %7
  tail call void @ERR_new() #8
  tail call void @ERR_set_debug(ptr noundef nonnull @.str.8, i32 noundef 905, ptr noundef nonnull @__func__.pkey_ecd_ctrl) #8
  tail call void (i32, i32, ptr, ...) @ERR_set_error(i32 noundef 16, i32 noundef 138, ptr noundef null) #8
  br label %12

11:                                               ; preds = %4
  br label %12

12:                                               ; preds = %4, %5, %7, %11, %10
  %.0 = phi i32 [ -2, %11 ], [ 0, %10 ], [ 1, %7 ], [ 1, %5 ], [ 1, %4 ]
  ret i32 %.0
}